target datalayout = "e-m:e-p270:32:32-p271:32:32-p272:64:64-i64:64-i128:128-f80:128-n8:16:32:64-S128"
target triple = "x86_64-pc-linux-gnu"

%struct.FLAC__StreamMetadata = type { i32, i32, i32, %union.anon }
%union.anon = type { %struct.FLAC__StreamMetadata_CueSheet }
%struct.FLAC__StreamMetadata_CueSheet = type { [129 x i8], i64, i32, i32, ptr }
%struct.FLAC__StreamMetadata_CueSheet_Track = type { i64, i8, [13 x i8], i8, i8, ptr }
%struct.FLAC__StreamMetadata_CueSheet_Index = type { i64, i8 }

@FLAC__STREAM_METADATA_CUESHEET_MEDIA_CATALOG_NUMBER_LEN = external constant i32, align 4
@FLAC__STREAM_METADATA_CUESHEET_LEAD_IN_LEN = external constant i32, align 4
@FLAC__STREAM_METADATA_CUESHEET_IS_CD_LEN = external constant i32, align 4
@FLAC__STREAM_METADATA_CUESHEET_RESERVED_LEN = external constant i32, align 4
@FLAC__STREAM_METADATA_CUESHEET_NUM_TRACKS_LEN = external constant i32, align 4
@FLAC__STREAM_METADATA_CUESHEET_TRACK_OFFSET_LEN = external constant i32, align 4
@FLAC__STREAM_METADATA_CUESHEET_TRACK_NUMBER_LEN = external constant i32, align 4
@FLAC__STREAM_METADATA_CUESHEET_TRACK_ISRC_LEN = external constant i32, align 4
@FLAC__STREAM_METADATA_CUESHEET_TRACK_TYPE_LEN = external constant i32, align 4
@FLAC__STREAM_METADATA_CUESHEET_TRACK_PRE_EMPHASIS_LEN = external constant i32, align 4
@FLAC__STREAM_METADATA_CUESHEET_TRACK_RESERVED_LEN = external constant i32, align 4
@FLAC__STREAM_METADATA_CUESHEET_TRACK_NUM_INDICES_LEN = external constant i32, align 4
@FLAC__STREAM_METADATA_CUESHEET_INDEX_OFFSET_LEN = external constant i32, align 4
@FLAC__STREAM_METADATA_CUESHEET_INDEX_NUMBER_LEN = external constant i32, align 4
@FLAC__STREAM_METADATA_CUESHEET_INDEX_RESERVED_LEN = external constant i32, align 4

; Function Attrs: nounwind sspstrong uwtable
define internal void @cuesheet_calculate_length_(ptr noundef %0) #0 {
  %2 = alloca ptr, align 8
  %3 = alloca i32, align 4
  store ptr %0, ptr %2, align 8, !tbaa !7
  call void @llvm.lifetime.start.p0(i64 4, ptr %3) #12
  %4 = load i32, ptr @FLAC__STREAM_METADATA_CUESHEET_MEDIA_CATALOG_NUMBER_LEN, align 4, !tbaa !3
  %5 = load i32, ptr @FLAC__STREAM_METADATA_CUESHEET_LEAD_IN_LEN, align 4, !tbaa !3
  %6 = add i32 %4, %5
  %7 = load i32, ptr @FLAC__STREAM_METADATA_CUESHEET_IS_CD_LEN, align 4, !tbaa !3
  %8 = add i32 %6, %7
  %9 = load i32, ptr @FLAC__STREAM_METADATA_CUESHEET_RESERVED_LEN, align 4, !tbaa !3
  %10 = add i32 %8, %9
  %11 = load i32, ptr @FLAC__STREAM_METADATA_CUESHEET_NUM_TRACKS_LEN, align 4, !tbaa !3
  %12 = add i32 %10, %11
  %13 = udiv i32 %12, 8
  %14 = load ptr, ptr %2, align 8, !tbaa !7
  %15 = getelementptr inbounds nuw %struct.FLAC__StreamMetadata, ptr %14, i32 0, i32 2
  store i32 %13, ptr %15, align 8, !tbaa !13
  %16 = load ptr, ptr %2, align 8, !tbaa !7
  %17 = getelementptr inbounds nuw %struct.FLAC__StreamMetadata, ptr %16, i32 0, i32 3
  %18 = getelementptr inbounds nuw %struct.FLAC__StreamMetadata_CueSheet, ptr %17, i32 0, i32 3
  %19 = load i32, ptr %18, align 4, !tbaa !16
  %20 = load i32, ptr @FLAC__STREAM_METADATA_CUESHEET_TRACK_OFFSET_LEN, align 4, !tbaa !3
  %21 = load i32, ptr @FLAC__STREAM_METADATA_CUESHEET_TRACK_NUMBER_LEN, align 4, !tbaa !3
  %22 = add i32 %20, %21
  %23 = load i32, ptr @FLAC__STREAM_METADATA_CUESHEET_TRACK_ISRC_LEN, align 4, !tbaa !3
  %24 = add i32 %22, %23
  %25 = load i32, ptr @FLAC__STREAM_METADATA_CUESHEET_TRACK_TYPE_LEN, align 4, !tbaa !3
  %26 = add i32 %24, %25
  %27 = load i32, ptr @FLAC__STREAM_METADATA_CUESHEET_TRACK_PRE_EMPHASIS_LEN, align 4, !tbaa !3
  %28 = add i32 %26, %27
  %29 = load i32, ptr @FLAC__STREAM_METADATA_CUESHEET_TRACK_RESERVED_LEN, align 4, !tbaa !3
  %30 = add i32 %28, %29
  %31 = load i32, ptr @FLAC__STREAM_METADATA_CUESHEET_TRACK_NUM_INDICES_LEN, align 4, !tbaa !3
  %32 = add i32 %30, %31
  %33 = mul i32 %19, %32
  %34 = udiv i32 %33, 8
  %35 = load ptr, ptr %2, align 8, !tbaa !7
  %36 = getelementptr inbounds nuw %struct.FLAC__StreamMetadata, ptr %35, i32 0, i32 2
  %37 = load i32, ptr %36, align 8, !tbaa !13
  %38 = add i32 %37, %34
  store i32 %38, ptr %36, align 8, !tbaa !13
  store i32 0, ptr %3, align 4, !tbaa !3
  br label %39

39:                                               ; preds = %68, %1
  %40 = load i32, ptr %3, align 4, !tbaa !3
  %41 = load ptr, ptr %2, align 8, !tbaa !7
  %42 = getelementptr inbounds nuw %struct.FLAC__StreamMetadata, ptr %41, i32 0, i32 3
  %43 = getelementptr inbounds nuw %struct.FLAC__StreamMetadata_CueSheet, ptr %42, i32 0, i32 3
  %44 = load i32, ptr %43, align 4, !tbaa !16
  %45 = icmp ult i32 %40, %44
  br i1 %45, label %46, label %71

46:                                               ; preds = %39
  %47 = load ptr, ptr %2, align 8, !tbaa !7
  %48 = getelementptr inbounds nuw %struct.FLAC__StreamMetadata, ptr %47, i32 0, i32 3
  %49 = getelementptr inbounds nuw %struct.FLAC__StreamMetadata_CueSheet, ptr %48, i32 0, i32 4
  %50 = load ptr, ptr %49, align 8, !tbaa !16
  %51 = load i32, ptr %3, align 4, !tbaa !3
  %52 = zext i32 %51 to i64
  %53 = getelementptr inbounds nuw %struct.FLAC__StreamMetadata_CueSheet_Track, ptr %50, i64 %52
  %54 = getelementptr inbounds nuw %struct.FLAC__StreamMetadata_CueSheet_Track, ptr %53, i32 0, i32 4
  %55 = load i8, ptr %54, align 1, !tbaa !23
  %56 = zext i8 %55 to i32
  %57 = load i32, ptr @FLAC__STREAM_METADATA_CUESHEET_INDEX_OFFSET_LEN, align 4, !tbaa !3
  %58 = load i32, ptr @FLAC__STREAM_METADATA_CUESHEET_INDEX_NUMBER_LEN, align 4, !tbaa !3
  %59 = add i32 %57, %58
  %60 = load i32, ptr @FLAC__STREAM_METADATA_CUESHEET_INDEX_RESERVED_LEN, align 4, !tbaa !3
  %61 = add i32 %59, %60
  %62 = mul i32 %56, %61
  %63 = udiv i32 %62, 8
  %64 = load ptr, ptr %2, align 8, !tbaa !7
  %65 = getelementptr inbounds nuw %struct.FLAC__StreamMetadata, ptr %64, i32 0, i32 2
  %66 = load i32, ptr %65, align 8, !tbaa !13
  %67 = add i32 %66, %63
  store i32 %67, ptr %65, align 8, !tbaa !13
  br label %68

68:                                               ; preds = %46
  %69 = load i32, ptr %3, align 4, !tbaa !3
  %70 = add i32 %69, 1
  store i32 %70, ptr %3, align 4, !tbaa !3
  br label %39, !llvm.loop !26

71:                                               ; preds = %39
  call void @llvm.lifetime.end.p0(i64 4, ptr %3) #12
  ret void
}

; Function Attrs: alwaysinline nounwind
define internal ptr @memmove.inline(ptr nonnull %0, ptr nonnull %1, i64 %2) #5 {
  %4 = alloca ptr, align 8
  %5 = alloca ptr, align 8
  %6 = alloca i64, align 8
  store ptr %0, ptr %4, align 8, !tbaa !27
  store ptr %1, ptr %5, align 8, !tbaa !27
  store i64 %2, ptr %6, align 8, !tbaa !28
  %7 = load ptr, ptr %4, align 8, !tbaa !27
  %8 = load ptr, ptr %5, align 8, !tbaa !27
  %9 = load i64, ptr %6, align 8, !tbaa !28
  %10 = load ptr, ptr %4, align 8, !tbaa !27
  %11 = call i64 @llvm.objectsize.i64.p0(ptr %10, i1 false, i1 true, i1 false)
  %12 = call ptr @__memmove_chk(ptr noundef %7, ptr noundef %8, i64 noundef %9, i64 noundef %11) #12
  ret ptr %12
}

; Function Attrs: nounwind sspstrong uwtable
define i32 @FLAC__metadata_object_cuesheet_track_insert_index(ptr noundef %0, i32 noundef %1, i32 noundef %2, i64 %3, i8 %4) #0 {
  %6 = alloca i32, align 4
  %7 = alloca %struct.FLAC__StreamMetadata_CueSheet_Index, align 8
  %8 = alloca ptr, align 8
  %9 = alloca i32, align 4
  %10 = alloca i32, align 4
  %11 = alloca ptr, align 8
  %12 = alloca i32, align 4
  %13 = getelementptr inbounds nuw { i64, i8 }, ptr %7, i32 0, i32 0
  store i64 %3, ptr %13, align 8
  %14 = getelementptr inbounds nuw { i64, i8 }, ptr %7, i32 0, i32 1
  store i8 %4, ptr %14, align 8
  store ptr %0, ptr %8, align 8, !tbaa !7
  store i32 %1, ptr %9, align 4, !tbaa !3
  store i32 %2, ptr %10, align 4, !tbaa !3
  call void @llvm.lifetime.start.p0(i64 8, ptr %11) #12
  %15 = load ptr, ptr %8, align 8, !tbaa !7
  %16 = getelementptr inbounds nuw %struct.FLAC__StreamMetadata, ptr %15, i32 0, i32 3
  %17 = getelementptr inbounds nuw %struct.FLAC__StreamMetadata_CueSheet, ptr %16, i32 0, i32 4
  %18 = load ptr, ptr %17, align 8, !tbaa !16
  %19 = load i32, ptr %9, align 4, !tbaa !3
  %20 = zext i32 %19 to i64
  %21 = getelementptr inbounds nuw %struct.FLAC__StreamMetadata_CueSheet_Track, ptr %18, i64 %20
  store ptr %21, ptr %11, align 8, !tbaa !27
  %22 = load ptr, ptr %8, align 8, !tbaa !7
  %23 = load i32, ptr %9, align 4, !tbaa !3
  %24 = load ptr, ptr %11, align 8, !tbaa !27
  %25 = getelementptr inbounds nuw %struct.FLAC__StreamMetadata_CueSheet_Track, ptr %24, i32 0, i32 4
  %26 = load i8, ptr %25, align 1, !tbaa !23
  %27 = zext i8 %26 to i32
  %28 = add nsw i32 %27, 1
  %29 = call i32 @FLAC__metadata_object_cuesheet_track_resize_indices(ptr noundef %22, i32 noundef %23, i32 noundef %28)
  %30 = icmp ne i32 %29, 0
  br i1 %30, label %32, label %31

31:                                               ; preds = %5
  store i32 0, ptr %6, align 4
  store i32 1, ptr %12, align 4
  br label %63

32:                                               ; preds = %5
  %33 = load ptr, ptr %11, align 8, !tbaa !27
  %34 = getelementptr inbounds nuw %struct.FLAC__StreamMetadata_CueSheet_Track, ptr %33, i32 0, i32 5
  %35 = load ptr, ptr %34, align 8, !tbaa !33
  %36 = load i32, ptr %10, align 4, !tbaa !3
  %37 = add i32 %36, 1
  %38 = zext i32 %37 to i64
  %39 = getelementptr inbounds nuw %struct.FLAC__StreamMetadata_CueSheet_Index, ptr %35, i64 %38
  %40 = load ptr, ptr %11, align 8, !tbaa !27
  %41 = getelementptr inbounds nuw %struct.FLAC__StreamMetadata_CueSheet_Track, ptr %40, i32 0, i32 5
  %42 = load ptr, ptr %41, align 8, !tbaa !33
  %43 = load i32, ptr %10, align 4, !tbaa !3
  %44 = zext i32 %43 to i64
  %45 = getelementptr inbounds nuw %struct.FLAC__StreamMetadata_CueSheet_Index, ptr %42, i64 %44
  %46 = load ptr, ptr %11, align 8, !tbaa !27
  %47 = getelementptr inbounds nuw %struct.FLAC__StreamMetadata_CueSheet_Track, ptr %46, i32 0, i32 4
  %48 = load i8, ptr %47, align 1, !tbaa !23
  %49 = zext i8 %48 to i32
  %50 = sub nsw i32 %49, 1
  %51 = load i32, ptr %10, align 4, !tbaa !3
  %52 = sub i32 %50, %51
  %53 = zext i32 %52 to i64
  %54 = mul i64 16, %53
  %55 = call ptr @memmove.inline(ptr noundef %39, ptr noundef %45, i64 noundef %54) #12
  %56 = load ptr, ptr %11, align 8, !tbaa !27
  %57 = getelementptr inbounds nuw %struct.FLAC__StreamMetadata_CueSheet_Track, ptr %56, i32 0, i32 5
  %58 = load ptr, ptr %57, align 8, !tbaa !33
  %59 = load i32, ptr %10, align 4, !tbaa !3
  %60 = zext i32 %59 to i64
  %61 = getelementptr inbounds nuw %struct.FLAC__StreamMetadata_CueSheet_Index, ptr %58, i64 %60
  call void @llvm.memcpy.p0.p0.i64(ptr align 8 %61, ptr align 8 %7, i64 16, i1 false), !tbaa.struct !103
  %62 = load ptr, ptr %8, align 8, !tbaa !7
  call void @cuesheet_calculate_length_(ptr noundef %62)
  store i32 1, ptr %6, align 4
  store i32 1, ptr %12, align 4
  br label %63

63:                                               ; preds = %32, %31
  call void @llvm.lifetime.end.p0(i64 8, ptr %11) #12
  %64 = load i32, ptr %6, align 4
  ret i32 %64
}