; Function Attrs: nounwind sspstrong uwtable
define range(i32 0, 2) i32 @FLAC__metadata_object_cuesheet_track_insert_index(ptr noundef captures(none) %0, i32 noundef %1, i32 noundef %2, i64 %3, i8 %4) local_unnamed_addr #0 {
  %6 = getelementptr inbounds nuw i8, ptr %0, i64 168
  %7 = load ptr, ptr %6, align 8, !tbaa !13
  %8 = zext i32 %1 to i64
  %9 = getelementptr inbounds nuw %struct.FLAC__StreamMetadata_CueSheet_Track, ptr %7, i64 %8
  %10 = getelementptr inbounds nuw i8, ptr %9, i64 23
  %11 = load i8, ptr %10, align 1, !tbaa !24
  %12 = zext i8 %11 to i32
  %13 = add nuw nsw i32 %12, 1
  %14 = tail call i32 @FLAC__metadata_object_cuesheet_track_resize_indices(ptr noundef %0, i32 noundef %1, i32 noundef %13)
  %.not = icmp eq i32 %14, 0
  br i1 %.not, label %cuesheet_calculate_length_.exit, label %15

15:                                               ; preds = %5
  %16 = getelementptr inbounds nuw i8, ptr %9, i64 24
  %17 = load ptr, ptr %16, align 8, !tbaa !21
  %18 = add i32 %2, 1
  %19 = zext i32 %18 to i64
  %20 = getelementptr inbounds nuw %struct.FLAC__StreamMetadata_CueSheet_Index, ptr %17, i64 %19
  %21 = zext i32 %2 to i64
  %22 = getelementptr inbounds nuw %struct.FLAC__StreamMetadata_CueSheet_Index, ptr %17, i64 %21
  %23 = load i8, ptr %10, align 1, !tbaa !24
  %24 = zext i8 %23 to i32
  %25 = xor i32 %2, -1
  %26 = add i32 %24, %25
  %27 = zext i32 %26 to i64
  %28 = shl nuw nsw i64 %27, 4
  tail call void @llvm.memmove.p0.p0.i64(ptr noundef nonnull align 1 %20, ptr noundef nonnull align 1 %22, i64 noundef range(i64 0, 137438953441) %28, i1 noundef false) #31
  %29 = load ptr, ptr %16, align 8, !tbaa !21
  %30 = getelementptr inbounds nuw %struct.FLAC__StreamMetadata_CueSheet_Index, ptr %29, i64 %21
  store i64 %3, ptr %30, align 8, !tbaa !76
  %.sroa.2.0..sroa_idx = getelementptr inbounds nuw i8, ptr %30, i64 8
  store i8 %4, ptr %.sroa.2.0..sroa_idx, align 8, !tbaa !13
  %31 = load i32, ptr @FLAC__STREAM_METADATA_CUESHEET_MEDIA_CATALOG_NUMBER_LEN, align 4, !tbaa !9
  %32 = load i32, ptr @FLAC__STREAM_METADATA_CUESHEET_LEAD_IN_LEN, align 4, !tbaa !9
  %33 = add i32 %32, %31
  %34 = load i32, ptr @FLAC__STREAM_METADATA_CUESHEET_IS_CD_LEN, align 4, !tbaa !9
  %35 = add i32 %33, %34
  %36 = load i32, ptr @FLAC__STREAM_METADATA_CUESHEET_RESERVED_LEN, align 4, !tbaa !9
  %37 = add i32 %35, %36
  %38 = load i32, ptr @FLAC__STREAM_METADATA_CUESHEET_NUM_TRACKS_LEN, align 4, !tbaa !9
  %39 = add i32 %37, %38
  %40 = lshr i32 %39, 3
  %41 = getelementptr inbounds nuw i8, ptr %0, i64 8
  %42 = getelementptr inbounds nuw i8, ptr %0, i64 164
  %43 = load i32, ptr %42, align 4, !tbaa !13
  %44 = load i32, ptr @FLAC__STREAM_METADATA_CUESHEET_TRACK_OFFSET_LEN, align 4, !tbaa !9
  %45 = load i32, ptr @FLAC__STREAM_METADATA_CUESHEET_TRACK_NUMBER_LEN, align 4, !tbaa !9
  %46 = add i32 %45, %44
  %47 = load i32, ptr @FLAC__STREAM_METADATA_CUESHEET_TRACK_ISRC_LEN, align 4, !tbaa !9
  %48 = add i32 %46, %47
  %49 = load i32, ptr @FLAC__STREAM_METADATA_CUESHEET_TRACK_TYPE_LEN, align 4, !tbaa !9
  %50 = add i32 %48, %49
  %51 = load i32, ptr @FLAC__STREAM_METADATA_CUESHEET_TRACK_PRE_EMPHASIS_LEN, align 4, !tbaa !9
  %52 = add i32 %50, %51
  %53 = load i32, ptr @FLAC__STREAM_METADATA_CUESHEET_TRACK_RESERVED_LEN, align 4, !tbaa !9
  %54 = add i32 %52, %53
  %55 = load i32, ptr @FLAC__STREAM_METADATA_CUESHEET_TRACK_NUM_INDICES_LEN, align 4, !tbaa !9
  %56 = add i32 %54, %55
  %57 = mul i32 %56, %43
  %58 = lshr i32 %57, 3
  %59 = add nuw nsw i32 %58, %40
  store i32 %59, ptr %41, align 8, !tbaa !8
  %.not.i = icmp eq i32 %43, 0
  br i1 %.not.i, label %cuesheet_calculate_length_.exit, label %.lr.ph.i

.lr.ph.i:                                         ; preds = %15
  %60 = load ptr, ptr %6, align 8, !tbaa !13
  %61 = load i32, ptr @FLAC__STREAM_METADATA_CUESHEET_INDEX_OFFSET_LEN, align 4, !tbaa !9
  %62 = load i32, ptr @FLAC__STREAM_METADATA_CUESHEET_INDEX_NUMBER_LEN, align 4, !tbaa !9
  %63 = add i32 %62, %61
  %64 = load i32, ptr @FLAC__STREAM_METADATA_CUESHEET_INDEX_RESERVED_LEN, align 4, !tbaa !9
  %65 = add i32 %63, %64
  %wide.trip.count.i = zext i32 %43 to i64
  br label %66

66:                                               ; preds = %66, %.lr.ph.i
  %indvars.iv.i = phi i64 [ 0, %.lr.ph.i ], [ %indvars.iv.next.i, %66 ]
  %67 = phi i32 [ %59, %.lr.ph.i ], [ %73, %66 ]
  %68 = getelementptr inbounds nuw %struct.FLAC__StreamMetadata_CueSheet_Track, ptr %60, i64 %indvars.iv.i, i32 4
  %69 = load i8, ptr %68, align 1, !tbaa !24
  %70 = zext i8 %69 to i32
  %71 = mul i32 %65, %70
  %72 = lshr i32 %71, 3
  %73 = add i32 %72, %67
  %indvars.iv.next.i = add nuw nsw i64 %indvars.iv.i, 1
  %exitcond.not.i = icmp eq i64 %indvars.iv.next.i, %wide.trip.count.i
  br i1 %exitcond.not.i, label %._crit_edge.i, label %66, !llvm.loop !95

._crit_edge.i:                                    ; preds = %66
  store i32 %73, ptr %41, align 8, !tbaa !8
  br label %cuesheet_calculate_length_.exit

cuesheet_calculate_length_.exit:                  ; preds = %._crit_edge.i, %15, %5
  %.0 = phi i32 [ 0, %5 ], [ 1, %15 ], [ 1, %._crit_edge.i ]
  ret i32 %.0
}